; Function Attrs: mustprogress uwtable
define noundef double @_ZNK8QuantLib23ExponentialJump1dMesher20jumpSizeDistributionEdd(ptr noundef nonnull align 8 dereferenceable(104) %this, double noundef %x, double noundef %t) local_unnamed_addr #0 align 2 personality ptr @__gxx_personality_v0 {
entry:
  %t.addr = alloca double, align 8
  %ref.tmp2 = alloca %"class.QuantLib::GaussLobattoIntegral", align 8
  %ref.tmp5 = alloca %"class.std::function", align 8
  store double %t, ptr %t.addr, align 8, !tbaa !28
  %cmp.i = fcmp ogt double %x, 1.000000e-100
  %.sroa.speculated = select i1 %cmp.i, double 1.000000e-100, double %x
  call void @llvm.lifetime.start.p0(i64 56, ptr nonnull %ref.tmp2) #19
  call void @_ZN8QuantLib20GaussLobattoIntegralC1Emddb(ptr noundef nonnull align 8 dereferenceable(49) %ref.tmp2, i64 noundef 1000000, double noundef 0x3D719799812DEA11, double noundef 0x47EFFFFFE0000000, i1 noundef zeroext true)
  call void @llvm.lifetime.start.p0(i64 32, ptr nonnull %ref.tmp5) #19
  %_M_manager.i.i = getelementptr inbounds nuw i8, ptr %ref.tmp5, i64 16
  %_M_invoker.i = getelementptr inbounds nuw i8, ptr %ref.tmp5, i64 24
  store ptr %this, ptr %ref.tmp5, align 8, !tbaa !27
  %ref.tmp6.sroa.5.0.ref.tmp5.sroa_idx = getelementptr inbounds i8, ptr %ref.tmp5, i64 8
  store ptr %t.addr, ptr %ref.tmp6.sroa.5.0.ref.tmp5.sroa_idx, align 8, !tbaa !27
  store ptr @"_ZNSt17_Function_handlerIFddEZNK8QuantLib23ExponentialJump1dMesher20jumpSizeDistributionEddE3$_0E9_M_invokeERKSt9_Any_dataOd", ptr %_M_invoker.i, align 8, !tbaa !38
  store ptr @"_ZNSt17_Function_handlerIFddEZNK8QuantLib23ExponentialJump1dMesher20jumpSizeDistributionEddE3$_0E10_M_managerERSt9_Any_dataRKS5_St18_Manager_operation", ptr %_M_manager.i.i, align 8, !tbaa !41
  %cmp.i1 = fcmp olt double %x, %.sroa.speculated
  %.sroa.speculated11 = select i1 %cmp.i1, double %.sroa.speculated, double %x
  %call9 = invoke noundef double @_ZNK8QuantLib10IntegratorclERKSt8functionIFddEEdd(ptr noundef nonnull align 8 dereferenceable(40) %ref.tmp2, ptr noundef nonnull align 8 dereferenceable(32) %ref.tmp5, double noundef %.sroa.speculated, double noundef %.sroa.speculated11)
          to label %invoke.cont8 unwind label %lpad

invoke.cont8:                                     ; preds = %entry
  %0 = load ptr, ptr %_M_manager.i.i, align 8, !tbaa !41
  %tobool.not.i = icmp eq ptr %0, null
  br i1 %tobool.not.i, label %_ZNSt14_Function_baseD2Ev.exit, label %if.then.i

if.then.i:                                        ; preds = %invoke.cont8
  %call.i = invoke noundef zeroext i1 %0(ptr noundef nonnull align 8 dereferenceable(16) %ref.tmp5, ptr noundef nonnull align 8 dereferenceable(16) %ref.tmp5, i32 noundef 3)
          to label %_ZNSt14_Function_baseD2Ev.exit unwind label %terminate.lpad.i

terminate.lpad.i:                                 ; preds = %if.then.i
  %1 = landingpad { ptr, i32 }
          catch ptr null
  %2 = extractvalue { ptr, i32 } %1, 0
  call void @__clang_call_terminate(ptr %2) #23
  unreachable

_ZNSt14_Function_baseD2Ev.exit:                   ; preds = %invoke.cont8, %if.then.i
  call void @llvm.lifetime.end.p0(i64 32, ptr nonnull %ref.tmp5) #19
  call void @llvm.lifetime.end.p0(i64 56, ptr nonnull %ref.tmp2) #19
  ret double %call9

lpad:                                             ; preds = %entry
  %3 = landingpad { ptr, i32 }
          cleanup
  %4 = load ptr, ptr %_M_manager.i.i, align 8, !tbaa !41
  %tobool.not.i4 = icmp eq ptr %4, null
  br i1 %tobool.not.i4, label %_ZNSt14_Function_baseD2Ev.exit8, label %if.then.i5

if.then.i5:                                       ; preds = %lpad
  %call.i6 = invoke noundef zeroext i1 %4(ptr noundef nonnull align 8 dereferenceable(16) %ref.tmp5, ptr noundef nonnull align 8 dereferenceable(16) %ref.tmp5, i32 noundef 3)
          to label %_ZNSt14_Function_baseD2Ev.exit8 unwind label %terminate.lpad.i7

terminate.lpad.i7:                                ; preds = %if.then.i5
  %5 = landingpad { ptr, i32 }
          catch ptr null
  %6 = extractvalue { ptr, i32 } %5, 0
  call void @__clang_call_terminate(ptr %6) #23
  unreachable

_ZNSt14_Function_baseD2Ev.exit8:                  ; preds = %lpad, %if.then.i5
  call void @llvm.lifetime.end.p0(i64 32, ptr nonnull %ref.tmp5) #19
  call void @llvm.lifetime.end.p0(i64 56, ptr nonnull %ref.tmp2) #19
  resume { ptr, i32 } %3
}